target datalayout = "e-m:e-p270:32:32-p271:32:32-p272:64:64-i64:64-i128:128-f80:128-n8:16:32:64-S128"
target triple = "x86_64-pc-linux-gnu"

%struct.AVFilterContext = type { ptr, ptr, ptr, ptr, ptr, i32, ptr, ptr, i32, ptr, ptr, i32, i32, ptr, ptr, ptr, ptr, i32, ptr, i32, i32 }
%struct.XMedianContext = type { ptr, ptr, i32, i32, i32, i32, float, i32, i32, i32, i32, i32, i32, [4 x i32], [4 x i32], [4 x i32], ptr, ptr, ptr, %struct.FFFrameSync, ptr }
%struct.FFFrameSync = type { ptr, ptr, i32, %struct.AVRational, i64, ptr, ptr, i32, i32, i8, i8, ptr, i32, i32, i32, i32 }
%struct.AVRational = type { i32, i32 }
%struct.AVFilterLink = type { ptr, ptr, ptr, ptr, i32, i32, i32, i32, %struct.AVRational, i32, i32, i32, %struct.AVChannelLayout, %struct.AVRational, ptr, i32, %struct.AVFilterFormatsConfig, %struct.AVFilterFormatsConfig }
%struct.AVChannelLayout = type { i32, i32, %union.anon.1, ptr }
%union.anon.1 = type { i64 }
%struct.AVFilterFormatsConfig = type { ptr, ptr, ptr, ptr, ptr }
%struct.ThreadData = type { ptr, ptr }
%struct.AVFrame = type { [8 x ptr], [8 x i32], ptr, i32, i32, i32, i32, i32, %struct.AVRational, i64, i64, %struct.AVRational, i32, ptr, i32, i32, [8 x ptr], ptr, i32, ptr, i32, i32, i32, i32, i32, i32, i32, i64, ptr, i32, ptr, ptr, i64, i64, i64, i64, ptr, %struct.AVChannelLayout, i64 }

; Function Attrs: alwaysinline nounwind willreturn memory(none) uwtable
define internal i32 @av_clip_c(i32 noundef %0, i32 noundef %1, i32 noundef %2) #9 {
  %4 = alloca i32, align 4
  %5 = alloca i32, align 4
  %6 = alloca i32, align 4
  %7 = alloca i32, align 4
  store i32 %0, ptr %5, align 4, !tbaa !37
  store i32 %1, ptr %6, align 4, !tbaa !37
  store i32 %2, ptr %7, align 4, !tbaa !37
  %8 = load i32, ptr %5, align 4, !tbaa !37
  %9 = load i32, ptr %6, align 4, !tbaa !37
  %10 = icmp slt i32 %8, %9
  br i1 %10, label %11, label %13

11:                                               ; preds = %3
  %12 = load i32, ptr %6, align 4, !tbaa !37
  store i32 %12, ptr %4, align 4
  br label %21

13:                                               ; preds = %3
  %14 = load i32, ptr %5, align 4, !tbaa !37
  %15 = load i32, ptr %7, align 4, !tbaa !37
  %16 = icmp sgt i32 %14, %15
  br i1 %16, label %17, label %19

17:                                               ; preds = %13
  %18 = load i32, ptr %7, align 4, !tbaa !37
  store i32 %18, ptr %4, align 4
  br label %21

19:                                               ; preds = %13
  %20 = load i32, ptr %5, align 4, !tbaa !37
  store i32 %20, ptr %4, align 4
  br label %21

21:                                               ; preds = %19, %17, %11
  %22 = load i32, ptr %4, align 4
  ret i32 %22
}

; Function Attrs: nounwind uwtable
define internal void @update_index(ptr noundef %0) #0 {
  %2 = alloca ptr, align 8
  store ptr %0, ptr %2, align 8, !tbaa !22
  %3 = load ptr, ptr %2, align 8, !tbaa !22
  %4 = getelementptr inbounds nuw %struct.XMedianContext, ptr %3, i32 0, i32 2
  %5 = load i32, ptr %4, align 8, !tbaa !35
  %6 = and i32 %5, 1
  %7 = icmp ne i32 %6, 0
  br i1 %7, label %8, label %21

8:                                                ; preds = %1
  %9 = load ptr, ptr %2, align 8, !tbaa !22
  %10 = getelementptr inbounds nuw %struct.XMedianContext, ptr %9, i32 0, i32 8
  %11 = load i32, ptr %10, align 8, !tbaa !36
  %12 = sitofp i32 %11 to float
  %13 = fmul nsz float %12, 2.000000e+00
  %14 = load ptr, ptr %2, align 8, !tbaa !22
  %15 = getelementptr inbounds nuw %struct.XMedianContext, ptr %14, i32 0, i32 6
  %16 = load float, ptr %15, align 8, !tbaa !46
  %17 = fmul nsz float %13, %16
  %18 = fptosi float %17 to i32
  %19 = load ptr, ptr %2, align 8, !tbaa !22
  %20 = getelementptr inbounds nuw %struct.XMedianContext, ptr %19, i32 0, i32 9
  store i32 %18, ptr %20, align 4, !tbaa !47
  br label %39

21:                                               ; preds = %1
  %22 = load ptr, ptr %2, align 8, !tbaa !22
  %23 = getelementptr inbounds nuw %struct.XMedianContext, ptr %22, i32 0, i32 8
  %24 = load i32, ptr %23, align 8, !tbaa !36
  %25 = sitofp i32 %24 to float
  %26 = fmul nsz float %25, 2.000000e+00
  %27 = load ptr, ptr %2, align 8, !tbaa !22
  %28 = getelementptr inbounds nuw %struct.XMedianContext, ptr %27, i32 0, i32 6
  %29 = load float, ptr %28, align 8, !tbaa !46
  %30 = fmul nsz float %26, %29
  %31 = fptosi float %30 to i32
  %32 = load ptr, ptr %2, align 8, !tbaa !22
  %33 = getelementptr inbounds nuw %struct.XMedianContext, ptr %32, i32 0, i32 2
  %34 = load i32, ptr %33, align 8, !tbaa !35
  %35 = sub nsw i32 %34, 1
  %36 = call i32 @av_clip_c(i32 noundef %31, i32 noundef 1, i32 noundef %35) #13
  %37 = load ptr, ptr %2, align 8, !tbaa !22
  %38 = getelementptr inbounds nuw %struct.XMedianContext, ptr %37, i32 0, i32 9
  store i32 %36, ptr %38, align 4, !tbaa !47
  br label %39

39:                                               ; preds = %21, %8
  ret void
}

; Function Attrs: nounwind uwtable
define internal i32 @process_frame(ptr noundef %0) #0 {
  %2 = alloca i32, align 4
  %3 = alloca ptr, align 8
  %4 = alloca ptr, align 8
  %5 = alloca ptr, align 8
  %6 = alloca ptr, align 8
  %7 = alloca ptr, align 8
  %8 = alloca ptr, align 8
  %9 = alloca %struct.ThreadData, align 8
  %10 = alloca i32, align 4
  %11 = alloca i32, align 4
  %12 = alloca i32, align 4
  store ptr %0, ptr %3, align 8, !tbaa !132
  call void @llvm.lifetime.start.p0(i64 8, ptr %4) #11
  %13 = load ptr, ptr %3, align 8, !tbaa !132
  %14 = getelementptr inbounds nuw %struct.FFFrameSync, ptr %13, i32 0, i32 1
  %15 = load ptr, ptr %14, align 8, !tbaa !134
  store ptr %15, ptr %4, align 8, !tbaa !4
  call void @llvm.lifetime.start.p0(i64 8, ptr %5) #11
  %16 = load ptr, ptr %4, align 8, !tbaa !4
  %17 = getelementptr inbounds nuw %struct.AVFilterContext, ptr %16, i32 0, i32 7
  %18 = load ptr, ptr %17, align 8, !tbaa !135
  %19 = getelementptr inbounds ptr, ptr %18, i64 0
  %20 = load ptr, ptr %19, align 8, !tbaa !48
  store ptr %20, ptr %5, align 8, !tbaa !48
  call void @llvm.lifetime.start.p0(i64 8, ptr %6) #11
  %21 = load ptr, ptr %3, align 8, !tbaa !132
  %22 = getelementptr inbounds nuw %struct.FFFrameSync, ptr %21, i32 0, i32 6
  %23 = load ptr, ptr %22, align 8, !tbaa !136
  store ptr %23, ptr %6, align 8, !tbaa !22
  call void @llvm.lifetime.start.p0(i64 8, ptr %7) #11
  %24 = load ptr, ptr %6, align 8, !tbaa !22
  %25 = getelementptr inbounds nuw %struct.XMedianContext, ptr %24, i32 0, i32 18
  %26 = load ptr, ptr %25, align 8, !tbaa !44
  store ptr %26, ptr %7, align 8, !tbaa !93
  call void @llvm.lifetime.start.p0(i64 8, ptr %8) #11
  call void @llvm.lifetime.start.p0(i64 16, ptr %9) #11
  call void @llvm.lifetime.start.p0(i64 4, ptr %10) #11
  call void @llvm.lifetime.start.p0(i64 4, ptr %11) #11
  %27 = load ptr, ptr %6, align 8, !tbaa !22
  call void @update_index(ptr noundef %27)
  store i32 0, ptr %10, align 4, !tbaa !37
  br label %28

28:                                               ; preds = %47, %1
  %29 = load i32, ptr %10, align 4, !tbaa !37
  %30 = load ptr, ptr %6, align 8, !tbaa !22
  %31 = getelementptr inbounds nuw %struct.XMedianContext, ptr %30, i32 0, i32 2
  %32 = load i32, ptr %31, align 8, !tbaa !35
  %33 = icmp slt i32 %29, %32
  br i1 %33, label %34, label %50

34:                                               ; preds = %28
  %35 = load ptr, ptr %6, align 8, !tbaa !22
  %36 = getelementptr inbounds nuw %struct.XMedianContext, ptr %35, i32 0, i32 19
  %37 = load i32, ptr %10, align 4, !tbaa !37
  %38 = load ptr, ptr %7, align 8, !tbaa !93
  %39 = load i32, ptr %10, align 4, !tbaa !37
  %40 = sext i32 %39 to i64
  %41 = getelementptr inbounds ptr, ptr %38, i64 %40
  %42 = call i32 @ff_framesync_get_frame(ptr noundef %36, i32 noundef %37, ptr noundef %41, i32 noundef 0)
  store i32 %42, ptr %11, align 4, !tbaa !37
  %43 = icmp slt i32 %42, 0
  br i1 %43, label %44, label %46

44:                                               ; preds = %34
  %45 = load i32, ptr %11, align 4, !tbaa !37
  store i32 %45, ptr %2, align 4
  store i32 1, ptr %12, align 4
  br label %125

46:                                               ; preds = %34
  br label %47

47:                                               ; preds = %46
  %48 = load i32, ptr %10, align 4, !tbaa !37
  %49 = add nsw i32 %48, 1
  store i32 %49, ptr %10, align 4, !tbaa !37
  br label %28, !llvm.loop !137

50:                                               ; preds = %28
  %51 = load ptr, ptr %4, align 8, !tbaa !4
  %52 = getelementptr inbounds nuw %struct.AVFilterContext, ptr %51, i32 0, i32 17
  %53 = load i32, ptr %52, align 8, !tbaa !138
  %54 = icmp ne i32 %53, 0
  br i1 %54, label %55, label %60

55:                                               ; preds = %50
  %56 = load ptr, ptr %7, align 8, !tbaa !93
  %57 = getelementptr inbounds ptr, ptr %56, i64 0
  %58 = load ptr, ptr %57, align 8, !tbaa !95
  %59 = call ptr @av_frame_clone(ptr noundef %58)
  store ptr %59, ptr %8, align 8, !tbaa !95
  br label %69

60:                                               ; preds = %50
  %61 = load ptr, ptr %5, align 8, !tbaa !48
  %62 = load ptr, ptr %5, align 8, !tbaa !48
  %63 = getelementptr inbounds nuw %struct.AVFilterLink, ptr %62, i32 0, i32 6
  %64 = load i32, ptr %63, align 8, !tbaa !62
  %65 = load ptr, ptr %5, align 8, !tbaa !48
  %66 = getelementptr inbounds nuw %struct.AVFilterLink, ptr %65, i32 0, i32 7
  %67 = load i32, ptr %66, align 4, !tbaa !61
  %68 = call ptr @ff_get_video_buffer(ptr noundef %61, i32 noundef %64, i32 noundef %67)
  store ptr %68, ptr %8, align 8, !tbaa !95
  br label %69

69:                                               ; preds = %60, %55
  %70 = load ptr, ptr %8, align 8, !tbaa !95
  %71 = icmp ne ptr %70, null
  br i1 %71, label %73, label %72

72:                                               ; preds = %69
  store i32 -12, ptr %2, align 4
  store i32 1, ptr %12, align 4
  br label %125

73:                                               ; preds = %69
  %74 = load ptr, ptr %6, align 8, !tbaa !22
  %75 = getelementptr inbounds nuw %struct.XMedianContext, ptr %74, i32 0, i32 19
  %76 = getelementptr inbounds nuw %struct.FFFrameSync, ptr %75, i32 0, i32 4
  %77 = load i64, ptr %76, align 8, !tbaa !139
  %78 = load ptr, ptr %6, align 8, !tbaa !22
  %79 = getelementptr inbounds nuw %struct.XMedianContext, ptr %78, i32 0, i32 19
  %80 = getelementptr inbounds nuw %struct.FFFrameSync, ptr %79, i32 0, i32 3
  %81 = load ptr, ptr %5, align 8, !tbaa !48
  %82 = getelementptr inbounds nuw %struct.AVFilterLink, ptr %81, i32 0, i32 13
  %83 = load i64, ptr %80, align 4
  %84 = load i64, ptr %82, align 8
  %85 = call i64 @av_rescale_q(i64 noundef %77, i64 %83, i64 %84) #13
  %86 = load ptr, ptr %8, align 8, !tbaa !95
  %87 = getelementptr inbounds nuw %struct.AVFrame, ptr %86, i32 0, i32 9
  store i64 %85, ptr %87, align 8, !tbaa !140
  %88 = load ptr, ptr %4, align 8, !tbaa !4
  %89 = getelementptr inbounds nuw %struct.AVFilterContext, ptr %88, i32 0, i32 17
  %90 = load i32, ptr %89, align 8, !tbaa !138
  %91 = icmp ne i32 %90, 0
  br i1 %91, label %121, label %92

92:                                               ; preds = %73
  %93 = load ptr, ptr %7, align 8, !tbaa !93
  %94 = getelementptr inbounds nuw %struct.ThreadData, ptr %9, i32 0, i32 0
  store ptr %93, ptr %94, align 8, !tbaa !91
  %95 = load ptr, ptr %8, align 8, !tbaa !95
  %96 = getelementptr inbounds nuw %struct.ThreadData, ptr %9, i32 0, i32 1
  store ptr %95, ptr %96, align 8, !tbaa !94
  %97 = load ptr, ptr %4, align 8, !tbaa !4
  %98 = load ptr, ptr %6, align 8, !tbaa !22
  %99 = getelementptr inbounds nuw %struct.XMedianContext, ptr %98, i32 0, i32 20
  %100 = load ptr, ptr %99, align 8, !tbaa !72
  %101 = load ptr, ptr %6, align 8, !tbaa !22
  %102 = getelementptr inbounds nuw %struct.XMedianContext, ptr %101, i32 0, i32 15
  %103 = getelementptr inbounds [4 x i32], ptr %102, i64 0, i64 1
  %104 = load i32, ptr %103, align 4, !tbaa !37
  %105 = load ptr, ptr %6, align 8, !tbaa !22
  %106 = getelementptr inbounds nuw %struct.XMedianContext, ptr %105, i32 0, i32 4
  %107 = load i32, ptr %106, align 8, !tbaa !71
  %108 = icmp sgt i32 %104, %107
  br i1 %108, label %109, label %113

109:                                              ; preds = %92
  %110 = load ptr, ptr %6, align 8, !tbaa !22
  %111 = getelementptr inbounds nuw %struct.XMedianContext, ptr %110, i32 0, i32 4
  %112 = load i32, ptr %111, align 8, !tbaa !71
  br label %118

113:                                              ; preds = %92
  %114 = load ptr, ptr %6, align 8, !tbaa !22
  %115 = getelementptr inbounds nuw %struct.XMedianContext, ptr %114, i32 0, i32 15
  %116 = getelementptr inbounds [4 x i32], ptr %115, i64 0, i64 1
  %117 = load i32, ptr %116, align 4, !tbaa !37
  br label %118

118:                                              ; preds = %113, %109
  %119 = phi i32 [ %112, %109 ], [ %117, %113 ]
  %120 = call i32 @ff_filter_execute(ptr noundef %97, ptr noundef %100, ptr noundef %9, ptr noundef null, i32 noundef %119)
  br label %121

121:                                              ; preds = %118, %73
  %122 = load ptr, ptr %5, align 8, !tbaa !48
  %123 = load ptr, ptr %8, align 8, !tbaa !95
  %124 = call i32 @ff_filter_frame(ptr noundef %122, ptr noundef %123)
  store i32 %124, ptr %2, align 4
  store i32 1, ptr %12, align 4
  br label %125

125:                                              ; preds = %121, %72, %44
  call void @llvm.lifetime.end.p0(i64 4, ptr %11) #11
  call void @llvm.lifetime.end.p0(i64 4, ptr %10) #11
  call void @llvm.lifetime.end.p0(i64 16, ptr %9) #11
  call void @llvm.lifetime.end.p0(i64 8, ptr %8) #11
  call void @llvm.lifetime.end.p0(i64 8, ptr %7) #11
  call void @llvm.lifetime.end.p0(i64 8, ptr %6) #11
  call void @llvm.lifetime.end.p0(i64 8, ptr %5) #11
  call void @llvm.lifetime.end.p0(i64 8, ptr %4) #11
  %126 = load i32, ptr %2, align 4
  ret i32 %126
}