; Function Attrs: nounwind uwtable
define internal i32 @process_frame(ptr noundef readonly captures(none) %0) #0 {
  %2 = alloca %struct.ThreadData, align 8
  %3 = getelementptr inbounds nuw i8, ptr %0, i64 8
  %4 = load ptr, ptr %3, align 8, !tbaa !114
  %5 = getelementptr inbounds nuw i8, ptr %4, i64 56
  %6 = load ptr, ptr %5, align 8, !tbaa !115
  %7 = load ptr, ptr %6, align 8, !tbaa !51
  %8 = getelementptr inbounds nuw i8, ptr %0, i64 48
  %9 = load ptr, ptr %8, align 8, !tbaa !116
  %10 = getelementptr inbounds nuw i8, ptr %9, i64 128
  %11 = load ptr, ptr %10, align 8, !tbaa !39
  call void @llvm.lifetime.start.p0(i64 16, ptr nonnull %2) #10
  %12 = getelementptr inbounds nuw i8, ptr %9, i64 16
  %13 = load i32, ptr %12, align 8, !tbaa !32
  %14 = and i32 %13, 1
  %.not.i = icmp eq i32 %14, 0
  %15 = getelementptr inbounds nuw i8, ptr %9, i64 40
  %16 = load i32, ptr %15, align 8, !tbaa !33
  %17 = sitofp i32 %16 to float
  %18 = fmul nsz float %17, 2.000000e+00
  %19 = getelementptr inbounds nuw i8, ptr %9, i64 32
  %20 = load float, ptr %19, align 8, !tbaa !41
  %21 = fmul nsz float %20, %18
  %22 = fptosi float %21 to i32
  br i1 %.not.i, label %23, label %update_index.exit

23:                                               ; preds = %1
  %24 = add nsw i32 %13, -1
  %25 = icmp slt i32 %22, 1
  %..i.i = tail call i32 @llvm.smin.i32(i32 %24, i32 %22)
  %.0.i.i = select i1 %25, i32 1, i32 %..i.i
  br label %update_index.exit

update_index.exit:                                ; preds = %1, %23
  %.sink.i = phi i32 [ %.0.i.i, %23 ], [ %22, %1 ]
  %26 = getelementptr inbounds nuw i8, ptr %9, i64 44
  store i32 %.sink.i, ptr %26, align 4, !tbaa !42
  %27 = icmp sgt i32 %13, 0
  br i1 %27, label %.lr.ph, label %._crit_edge

.lr.ph:                                           ; preds = %update_index.exit
  %28 = getelementptr inbounds nuw i8, ptr %9, i64 136
  br label %33

29:                                               ; preds = %33
  %indvars.iv.next = add nuw nsw i64 %indvars.iv, 1
  %30 = load i32, ptr %12, align 8, !tbaa !32
  %31 = sext i32 %30 to i64
  %32 = icmp slt i64 %indvars.iv.next, %31
  br i1 %32, label %33, label %._crit_edge, !llvm.loop !117

33:                                               ; preds = %.lr.ph, %29
  %indvars.iv = phi i64 [ 0, %.lr.ph ], [ %indvars.iv.next, %29 ]
  %34 = getelementptr inbounds nuw ptr, ptr %11, i64 %indvars.iv
  %35 = trunc nuw nsw i64 %indvars.iv to i32
  %36 = tail call i32 @ff_framesync_get_frame(ptr noundef nonnull %28, i32 noundef %35, ptr noundef %34, i32 noundef 0) #10
  %37 = icmp slt i32 %36, 0
  br i1 %37, label %.loopexit, label %29

._crit_edge:                                      ; preds = %29, %update_index.exit
  %38 = getelementptr inbounds nuw i8, ptr %4, i64 128
  %39 = load i32, ptr %38, align 8, !tbaa !118
  %.not = icmp eq i32 %39, 0
  br i1 %.not, label %43, label %40

40:                                               ; preds = %._crit_edge
  %41 = load ptr, ptr %11, align 8, !tbaa !85
  %42 = tail call ptr @av_frame_clone(ptr noundef %41) #10
  br label %49

43:                                               ; preds = %._crit_edge
  %44 = getelementptr inbounds nuw i8, ptr %7, i64 40
  %45 = load i32, ptr %44, align 8, !tbaa !54
  %46 = getelementptr inbounds nuw i8, ptr %7, i64 44
  %47 = load i32, ptr %46, align 4, !tbaa !53
  %48 = tail call ptr @ff_get_video_buffer(ptr noundef %7, i32 noundef %45, i32 noundef %47) #10
  br label %49

49:                                               ; preds = %43, %40
  %.035 = phi ptr [ %42, %40 ], [ %48, %43 ]
  %.not39 = icmp eq ptr %.035, null
  br i1 %.not39, label %.loopexit, label %50

50:                                               ; preds = %49
  %51 = getelementptr inbounds nuw i8, ptr %9, i64 168
  %52 = load i64, ptr %51, align 8, !tbaa !119
  %53 = getelementptr inbounds nuw i8, ptr %9, i64 156
  %54 = getelementptr inbounds nuw i8, ptr %7, i64 96
  %55 = load i64, ptr %53, align 4
  %56 = load i64, ptr %54, align 8
  %57 = tail call i64 @av_rescale_q(i64 noundef %52, i64 %55, i64 %56) #13
  %58 = getelementptr inbounds nuw i8, ptr %.035, i64 136
  store i64 %57, ptr %58, align 8, !tbaa !120
  %59 = load i32, ptr %38, align 8, !tbaa !118
  %.not40 = icmp eq i32 %59, 0
  br i1 %.not40, label %60, label %69

60:                                               ; preds = %50
  store ptr %11, ptr %2, align 8, !tbaa !80
  %61 = getelementptr inbounds nuw i8, ptr %2, i64 8
  store ptr %.035, ptr %61, align 8, !tbaa !82
  %62 = getelementptr inbounds nuw i8, ptr %9, i64 232
  %63 = load ptr, ptr %62, align 8, !tbaa !64
  %64 = getelementptr inbounds nuw i8, ptr %9, i64 96
  %65 = load i32, ptr %64, align 4, !tbaa !67
  %66 = getelementptr inbounds nuw i8, ptr %9, i64 24
  %67 = load i32, ptr %66, align 8, !tbaa !63
  %. = tail call i32 @llvm.smin.i32(i32 %65, i32 %67)
  %68 = call i32 @ff_filter_execute(ptr noundef nonnull %4, ptr noundef %63, ptr noundef nonnull %2, ptr noundef null, i32 noundef %.) #10
  br label %69

69:                                               ; preds = %60, %50
  %70 = call i32 @ff_filter_frame(ptr noundef nonnull %7, ptr noundef nonnull %.035) #10
  br label %.loopexit

.loopexit:                                        ; preds = %33, %49, %69
  %.0 = phi i32 [ %70, %69 ], [ -12, %49 ], [ %36, %33 ]
  call void @llvm.lifetime.end.p0(i64 16, ptr nonnull %2) #10
  ret i32 %.0
}